target datalayout = "e-m:e-p270:32:32-p271:32:32-p272:64:64-i64:64-i128:128-f80:128-n8:16:32:64-S128"
target triple = "x86_64-pc-linux-gnu"

%struct.Pf_Man_t_ = type { ptr, ptr, ptr, ptr, ptr, i32, ptr, %struct.Vec_Ptr_t_, %struct.Vec_Int_t_, %struct.Vec_Flt_t_, %struct.Vec_Int_t_, i32, i32, i32, i32, float, float, i64, [6 x double], i32 }
%struct.Vec_Ptr_t_ = type { i32, i32, ptr }
%struct.Vec_Flt_t_ = type { i32, i32, ptr }
%struct.Vec_Int_t_ = type { i32, i32, ptr }
%struct.Vec_Mem_t_ = type { i32, i32, i32, i32, i32, i32, ptr, ptr, ptr }
%struct.Vec_Wec_t_ = type { i32, i32, ptr }
%struct.Gia_Man_t_ = type { ptr, ptr, i32, i32, i32, i32, ptr, ptr, i32, i32, i32, ptr, ptr, %struct.Vec_Int_t_, %struct.Vec_Int_t_, i32, i32, i32, %struct.Vec_Int_t_, ptr, ptr, ptr, i32, i32, i32, i32, ptr, ptr, ptr, ptr, ptr, i32, i32, ptr, i32, ptr, ptr, ptr, ptr, ptr, ptr, ptr, ptr, ptr, ptr, ptr, ptr, ptr, ptr, ptr, ptr, ptr, ptr, %struct.Vec_Int_t_, %struct.Vec_Int_t_, ptr, ptr, ptr, ptr, ptr, ptr, ptr, ptr, ptr, ptr, ptr, ptr, ptr, ptr, ptr, ptr, ptr, ptr, ptr, ptr, ptr, i32, float, float, ptr, ptr, i32, ptr, ptr, ptr, ptr, ptr, ptr, ptr, ptr, ptr, ptr, ptr, ptr, ptr, ptr, ptr, i64, i64, ptr, ptr, i32, i32, i32, i32, i32, i32, i32, i32, i32, i32, i32, i32, ptr, ptr, ptr, ptr, ptr, ptr, ptr, ptr, i32, i32, i32, ptr, i32, i32, ptr, ptr, ptr, ptr, ptr, ptr, i32, i32, ptr, %struct.Vec_Int_t_, %struct.Vec_Int_t_, %struct.Vec_Int_t_, ptr, ptr, ptr, i32, i32, i32, i32, ptr, ptr, ptr, ptr, ptr }
%struct.Jf_Par_t_ = type { i32, i32, i32, i32, i32, i32, i32, i32, i32, i32, i32, i32, i32, i32, i32, i32, i32, i32, i32, i32, i32, i32, i32, i32, i32, i32, i32, i32, i32, i32, i32, i32, i32, i32, i32, i32, i32, i32, i32, i32, i64, i64, i64, i64, i64, i64, i64, i64, i32, float, float, float, float, ptr, ptr }

@stdout = external global ptr, align 8
@.str.16 = private unnamed_addr constant [15 x i8] c"LutSize = %d  \00", align 1
@.str.17 = private unnamed_addr constant [14 x i8] c"CutNum = %d  \00", align 1
@.str.18 = private unnamed_addr constant [12 x i8] c"Iter = %d  \00", align 1
@.str.19 = private unnamed_addr constant [15 x i8] c"Coarse = %d   \00", align 1
@.str.20 = private unnamed_addr constant [13 x i8] c"Cells = %d  \00", align 1
@.str.21 = private unnamed_addr constant [13 x i8] c"Funcs = %d  \00", align 1
@.str.22 = private unnamed_addr constant [15 x i8] c"Matches = %d  \00", align 1
@.str.23 = private unnamed_addr constant [15 x i8] c"Choices = %d  \00", align 1
@.str.24 = private unnamed_addr constant [2 x i8] c"\0A\00", align 1
@.str.25 = private unnamed_addr constant [19 x i8] c"Computing cuts...\0D\00", align 1

; Function Attrs: inlinehint nounwind uwtable
define internal i32 @Vec_IntSize(ptr noundef %0) #2 {
  %2 = alloca ptr, align 8
  store ptr %0, ptr %2, align 8, !tbaa !28
  %3 = load ptr, ptr %2, align 8, !tbaa !28
  %4 = getelementptr inbounds nuw %struct.Vec_Int_t_, ptr %3, i32 0, i32 1
  %5 = load i32, ptr %4, align 4, !tbaa !48
  ret i32 %5
}

; Function Attrs: inlinehint nounwind uwtable
define internal ptr @Vec_WecEntry(ptr noundef %0, i32 noundef %1) #2 {
  %3 = alloca ptr, align 8
  %4 = alloca i32, align 4
  store ptr %0, ptr %3, align 8, !tbaa !43
  store i32 %1, ptr %4, align 4, !tbaa !12
  %5 = load ptr, ptr %3, align 8, !tbaa !43
  %6 = getelementptr inbounds nuw %struct.Vec_Wec_t_, ptr %5, i32 0, i32 2
  %7 = load ptr, ptr %6, align 8, !tbaa !47
  %8 = load i32, ptr %4, align 4, !tbaa !12
  %9 = sext i32 %8 to i64
  %10 = getelementptr inbounds %struct.Vec_Int_t_, ptr %7, i64 %9
  ret ptr %10
}

; Function Attrs: inlinehint nounwind uwtable
define internal i32 @Vec_WecSize(ptr noundef %0) #2 {
  %2 = alloca ptr, align 8
  store ptr %0, ptr %2, align 8, !tbaa !43
  %3 = load ptr, ptr %2, align 8, !tbaa !43
  %4 = getelementptr inbounds nuw %struct.Vec_Wec_t_, ptr %3, i32 0, i32 1
  %5 = load i32, ptr %4, align 4, !tbaa !44
  ret i32 %5
}

; Function Attrs: inlinehint nounwind uwtable
define internal i32 @Gia_ManChoiceNum(ptr noundef %0) #2 {
  %2 = alloca ptr, align 8
  %3 = alloca i32, align 4
  %4 = alloca i32, align 4
  store ptr %0, ptr %2, align 8, !tbaa !78
  call void @llvm.lifetime.start.p0(i64 4, ptr %3) #13
  store i32 0, ptr %3, align 4, !tbaa !12
  %5 = load ptr, ptr %2, align 8, !tbaa !78
  %6 = getelementptr inbounds nuw %struct.Gia_Man_t_, ptr %5, i32 0, i32 29
  %7 = load ptr, ptr %6, align 8, !tbaa !103
  %8 = icmp ne ptr %7, null
  br i1 %8, label %9, label %32

9:                                                ; preds = %1
  call void @llvm.lifetime.start.p0(i64 4, ptr %4) #13
  store i32 0, ptr %4, align 4, !tbaa !12
  br label %10

10:                                               ; preds = %28, %9
  %11 = load i32, ptr %4, align 4, !tbaa !12
  %12 = load ptr, ptr %2, align 8, !tbaa !78
  %13 = getelementptr inbounds nuw %struct.Gia_Man_t_, ptr %12, i32 0, i32 4
  %14 = load i32, ptr %13, align 8, !tbaa !104
  %15 = icmp slt i32 %11, %14
  br i1 %15, label %16, label %31

16:                                               ; preds = %10
  %17 = load ptr, ptr %2, align 8, !tbaa !78
  %18 = getelementptr inbounds nuw %struct.Gia_Man_t_, ptr %17, i32 0, i32 29
  %19 = load ptr, ptr %18, align 8, !tbaa !103
  %20 = load i32, ptr %4, align 4, !tbaa !12
  %21 = sext i32 %20 to i64
  %22 = getelementptr inbounds i32, ptr %19, i64 %21
  %23 = load i32, ptr %22, align 4, !tbaa !12
  %24 = icmp sgt i32 %23, 0
  %25 = zext i1 %24 to i32
  %26 = load i32, ptr %3, align 4, !tbaa !12
  %27 = add nsw i32 %26, %25
  store i32 %27, ptr %3, align 4, !tbaa !12
  br label %28

28:                                               ; preds = %16
  %29 = load i32, ptr %4, align 4, !tbaa !12
  %30 = add nsw i32 %29, 1
  store i32 %30, ptr %4, align 4, !tbaa !12
  br label %10, !llvm.loop !171

31:                                               ; preds = %10
  call void @llvm.lifetime.end.p0(i64 4, ptr %4) #13
  br label %32

32:                                               ; preds = %31, %1
  %33 = load i32, ptr %3, align 4, !tbaa !12
  call void @llvm.lifetime.end.p0(i64 4, ptr %3) #13
  ret i32 %33
}

; Function Attrs: inlinehint nounwind uwtable
define internal i32 @Vec_WecSizeSize(ptr noundef %0) #2 {
  %2 = alloca ptr, align 8
  %3 = alloca ptr, align 8
  %4 = alloca i32, align 4
  %5 = alloca i32, align 4
  store ptr %0, ptr %2, align 8, !tbaa !43
  call void @llvm.lifetime.start.p0(i64 8, ptr %3) #13
  call void @llvm.lifetime.start.p0(i64 4, ptr %4) #13
  call void @llvm.lifetime.start.p0(i64 4, ptr %5) #13
  store i32 0, ptr %5, align 4, !tbaa !12
  store i32 0, ptr %4, align 4, !tbaa !12
  br label %6

6:                                                ; preds = %22, %1
  %7 = load i32, ptr %4, align 4, !tbaa !12
  %8 = load ptr, ptr %2, align 8, !tbaa !43
  %9 = call i32 @Vec_WecSize(ptr noundef %8)
  %10 = icmp slt i32 %7, %9
  br i1 %10, label %11, label %15

11:                                               ; preds = %6
  %12 = load ptr, ptr %2, align 8, !tbaa !43
  %13 = load i32, ptr %4, align 4, !tbaa !12
  %14 = call ptr @Vec_WecEntry(ptr noundef %12, i32 noundef %13)
  store ptr %14, ptr %3, align 8, !tbaa !28
  br label %15

15:                                               ; preds = %11, %6
  %16 = phi i1 [ false, %6 ], [ true, %11 ]
  br i1 %16, label %17, label %25

17:                                               ; preds = %15
  %18 = load ptr, ptr %3, align 8, !tbaa !28
  %19 = call i32 @Vec_IntSize(ptr noundef %18)
  %20 = load i32, ptr %5, align 4, !tbaa !12
  %21 = add nsw i32 %20, %19
  store i32 %21, ptr %5, align 4, !tbaa !12
  br label %22

22:                                               ; preds = %17
  %23 = load i32, ptr %4, align 4, !tbaa !12
  %24 = add nsw i32 %23, 1
  store i32 %24, ptr %4, align 4, !tbaa !12
  br label %6, !llvm.loop !170

25:                                               ; preds = %15
  %26 = load i32, ptr %5, align 4, !tbaa !12
  call void @llvm.lifetime.end.p0(i64 4, ptr %5) #13
  call void @llvm.lifetime.end.p0(i64 4, ptr %4) #13
  call void @llvm.lifetime.end.p0(i64 8, ptr %3) #13
  ret i32 %26
}

; Function Attrs: inlinehint nounwind uwtable
define internal i32 @Vec_MemEntryNum(ptr noundef %0) #2 {
  %2 = alloca ptr, align 8
  store ptr %0, ptr %2, align 8, !tbaa !35
  %3 = load ptr, ptr %2, align 8, !tbaa !35
  %4 = getelementptr inbounds nuw %struct.Vec_Mem_t_, ptr %3, i32 0, i32 1
  %5 = load i32, ptr %4, align 4, !tbaa !38
  ret i32 %5
}

; Function Attrs: nounwind uwtable
define void @Pf_ManPrintInit(ptr noundef %0) #0 {
  %2 = alloca ptr, align 8
  %3 = alloca i32, align 4
  %4 = alloca i32, align 4
  store ptr %0, ptr %2, align 8, !tbaa !3
  call void @llvm.lifetime.start.p0(i64 4, ptr %3) #13
  %5 = load ptr, ptr %2, align 8, !tbaa !3
  %6 = getelementptr inbounds nuw %struct.Pf_Man_t_, ptr %5, i32 0, i32 1
  %7 = load ptr, ptr %6, align 8, !tbaa !95
  %8 = getelementptr inbounds nuw %struct.Jf_Par_t_, ptr %7, i32 0, i32 34
  %9 = load i32, ptr %8, align 8, !tbaa !159
  %10 = icmp ne i32 %9, 0
  br i1 %10, label %12, label %11

11:                                               ; preds = %1
  store i32 1, ptr %4, align 4
  br label %72

12:                                               ; preds = %1
  %13 = load ptr, ptr %2, align 8, !tbaa !3
  %14 = getelementptr inbounds nuw %struct.Pf_Man_t_, ptr %13, i32 0, i32 1
  %15 = load ptr, ptr %14, align 8, !tbaa !95
  %16 = getelementptr inbounds nuw %struct.Jf_Par_t_, ptr %15, i32 0, i32 0
  %17 = load i32, ptr %16, align 8, !tbaa !122
  %18 = call i32 (ptr, ...) @printf(ptr noundef @.str.16, i32 noundef %17)
  %19 = load ptr, ptr %2, align 8, !tbaa !3
  %20 = getelementptr inbounds nuw %struct.Pf_Man_t_, ptr %19, i32 0, i32 1
  %21 = load ptr, ptr %20, align 8, !tbaa !95
  %22 = getelementptr inbounds nuw %struct.Jf_Par_t_, ptr %21, i32 0, i32 1
  %23 = load i32, ptr %22, align 4, !tbaa !124
  %24 = call i32 (ptr, ...) @printf(ptr noundef @.str.17, i32 noundef %23)
  %25 = load ptr, ptr %2, align 8, !tbaa !3
  %26 = getelementptr inbounds nuw %struct.Pf_Man_t_, ptr %25, i32 0, i32 1
  %27 = load ptr, ptr %26, align 8, !tbaa !95
  %28 = getelementptr inbounds nuw %struct.Jf_Par_t_, ptr %27, i32 0, i32 3
  %29 = load i32, ptr %28, align 4, !tbaa !167
  %30 = load ptr, ptr %2, align 8, !tbaa !3
  %31 = getelementptr inbounds nuw %struct.Pf_Man_t_, ptr %30, i32 0, i32 1
  %32 = load ptr, ptr %31, align 8, !tbaa !95
  %33 = getelementptr inbounds nuw %struct.Jf_Par_t_, ptr %32, i32 0, i32 4
  %34 = load i32, ptr %33, align 8, !tbaa !168
  %35 = add nsw i32 %29, %34
  %36 = call i32 (ptr, ...) @printf(ptr noundef @.str.18, i32 noundef %35)
  %37 = load ptr, ptr %2, align 8, !tbaa !3
  %38 = getelementptr inbounds nuw %struct.Pf_Man_t_, ptr %37, i32 0, i32 1
  %39 = load ptr, ptr %38, align 8, !tbaa !95
  %40 = getelementptr inbounds nuw %struct.Jf_Par_t_, ptr %39, i32 0, i32 21
  %41 = load i32, ptr %40, align 4, !tbaa !169
  %42 = call i32 (ptr, ...) @printf(ptr noundef @.str.19, i32 noundef %41)
  %43 = load ptr, ptr %2, align 8, !tbaa !3
  %44 = getelementptr inbounds nuw %struct.Pf_Man_t_, ptr %43, i32 0, i32 5
  %45 = load i32, ptr %44, align 8, !tbaa !64
  %46 = call i32 (ptr, ...) @printf(ptr noundef @.str.20, i32 noundef %45)
  %47 = load ptr, ptr %2, align 8, !tbaa !3
  %48 = getelementptr inbounds nuw %struct.Pf_Man_t_, ptr %47, i32 0, i32 2
  %49 = load ptr, ptr %48, align 8, !tbaa !14
  %50 = call i32 @Vec_MemEntryNum(ptr noundef %49)
  %51 = call i32 (ptr, ...) @printf(ptr noundef @.str.21, i32 noundef %50)
  %52 = load ptr, ptr %2, align 8, !tbaa !3
  %53 = getelementptr inbounds nuw %struct.Pf_Man_t_, ptr %52, i32 0, i32 3
  %54 = load ptr, ptr %53, align 8, !tbaa !27
  %55 = call i32 @Vec_WecSizeSize(ptr noundef %54)
  %56 = sdiv i32 %55, 2
  %57 = call i32 (ptr, ...) @printf(ptr noundef @.str.22, i32 noundef %56)
  %58 = load ptr, ptr %2, align 8, !tbaa !3
  %59 = getelementptr inbounds nuw %struct.Pf_Man_t_, ptr %58, i32 0, i32 0
  %60 = load ptr, ptr %59, align 8, !tbaa !94
  %61 = call i32 @Gia_ManChoiceNum(ptr noundef %60)
  store i32 %61, ptr %3, align 4, !tbaa !12
  %62 = load i32, ptr %3, align 4, !tbaa !12
  %63 = icmp ne i32 %62, 0
  br i1 %63, label %64, label %67

64:                                               ; preds = %12
  %65 = load i32, ptr %3, align 4, !tbaa !12
  %66 = call i32 (ptr, ...) @printf(ptr noundef @.str.23, i32 noundef %65)
  br label %67

67:                                               ; preds = %64, %12
  %68 = call i32 (ptr, ...) @printf(ptr noundef @.str.24)
  %69 = call i32 (ptr, ...) @printf(ptr noundef @.str.25)
  %70 = load ptr, ptr @stdout, align 8, !tbaa !165
  %71 = call i32 @fflush(ptr noundef %70)
  store i32 0, ptr %4, align 4
  br label %72

72:                                               ; preds = %67, %11
  call void @llvm.lifetime.end.p0(i64 4, ptr %3) #13
  %73 = load i32, ptr %4, align 4
  switch i32 %73, label %75 [
    i32 0, label %74
    i32 1, label %74
  ]

74:                                               ; preds = %72, %72
  ret void

75:                                               ; preds = %72
  unreachable
}