; Function Attrs: nofree nounwind uwtable
define void @Pf_ManPrintInit(ptr noundef readonly captures(none) %0) local_unnamed_addr #8 {
  %2 = getelementptr inbounds nuw i8, ptr %0, i64 8
  %3 = load ptr, ptr %2, align 8, !tbaa !96
  %4 = getelementptr inbounds nuw i8, ptr %3, i64 136
  %5 = load i32, ptr %4, align 8, !tbaa !160
  %.not = icmp eq i32 %5, 0
  br i1 %.not, label %57, label %6

6:                                                ; preds = %1
  %7 = load i32, ptr %3, align 8, !tbaa !118
  %8 = tail call i32 (ptr, ...) @printf(ptr noundef nonnull dereferenceable(1) @.str.16, i32 noundef %7)
  %9 = load ptr, ptr %2, align 8, !tbaa !96
  %10 = getelementptr inbounds nuw i8, ptr %9, i64 4
  %11 = load i32, ptr %10, align 4, !tbaa !120
  %12 = tail call i32 (ptr, ...) @printf(ptr noundef nonnull dereferenceable(1) @.str.17, i32 noundef %11)
  %13 = load ptr, ptr %2, align 8, !tbaa !96
  %14 = getelementptr inbounds nuw i8, ptr %13, i64 12
  %15 = load i32, ptr %14, align 4, !tbaa !168
  %16 = getelementptr inbounds nuw i8, ptr %13, i64 16
  %17 = load i32, ptr %16, align 8, !tbaa !169
  %18 = add nsw i32 %17, %15
  %19 = tail call i32 (ptr, ...) @printf(ptr noundef nonnull dereferenceable(1) @.str.18, i32 noundef %18)
  %20 = load ptr, ptr %2, align 8, !tbaa !96
  %21 = getelementptr inbounds nuw i8, ptr %20, i64 84
  %22 = load i32, ptr %21, align 4, !tbaa !170
  %23 = tail call i32 (ptr, ...) @printf(ptr noundef nonnull dereferenceable(1) @.str.19, i32 noundef %22)
  %24 = getelementptr inbounds nuw i8, ptr %0, i64 40
  %25 = load i32, ptr %24, align 8, !tbaa !66
  %26 = tail call i32 (ptr, ...) @printf(ptr noundef nonnull dereferenceable(1) @.str.20, i32 noundef %25)
  %27 = getelementptr inbounds nuw i8, ptr %0, i64 16
  %28 = load ptr, ptr %27, align 8, !tbaa !7
  %29 = getelementptr i8, ptr %28, i64 4
  %.val = load i32, ptr %29, align 4, !tbaa !36
  %30 = tail call i32 (ptr, ...) @printf(ptr noundef nonnull dereferenceable(1) @.str.21, i32 noundef %.val)
  %31 = getelementptr inbounds nuw i8, ptr %0, i64 24
  %32 = load ptr, ptr %31, align 8, !tbaa !23
  %33 = getelementptr i8, ptr %32, i64 4
  %.val8.i = load i32, ptr %33, align 4, !tbaa !24
  %34 = icmp sgt i32 %.val8.i, 0
  br i1 %34, label %.lr.ph.i, label %Vec_WecSizeSize.exit

.lr.ph.i:                                         ; preds = %6
  %35 = getelementptr i8, ptr %32, i64 8
  %.val9.i = load ptr, ptr %35, align 8, !tbaa !28
  %wide.trip.count.i = zext nneg i32 %.val8.i to i64
  br label %36

36:                                               ; preds = %36, %.lr.ph.i
  %indvars.iv.i = phi i64 [ 0, %.lr.ph.i ], [ %indvars.iv.next.i, %36 ]
  %.011.i = phi i32 [ 0, %.lr.ph.i ], [ %38, %36 ]
  %37 = getelementptr %struct.Vec_Int_t_, ptr %.val9.i, i64 %indvars.iv.i, i32 1
  %.val.i = load i32, ptr %37, align 4, !tbaa !29
  %38 = add nsw i32 %.val.i, %.011.i
  %indvars.iv.next.i = add nuw nsw i64 %indvars.iv.i, 1
  %exitcond.not.i = icmp eq i64 %indvars.iv.next.i, %wide.trip.count.i
  br i1 %exitcond.not.i, label %Vec_WecSizeSize.exit.loopexit, label %36, !llvm.loop !171

Vec_WecSizeSize.exit.loopexit:                    ; preds = %36
  %39 = sdiv i32 %38, 2
  br label %Vec_WecSizeSize.exit

Vec_WecSizeSize.exit:                             ; preds = %Vec_WecSizeSize.exit.loopexit, %6
  %.0.lcssa.i = phi i32 [ 0, %6 ], [ %39, %Vec_WecSizeSize.exit.loopexit ]
  %40 = tail call i32 (ptr, ...) @printf(ptr noundef nonnull dereferenceable(1) @.str.22, i32 noundef %.0.lcssa.i)
  %41 = load ptr, ptr %0, align 8, !tbaa !95
  %42 = getelementptr inbounds nuw i8, ptr %41, i64 208
  %43 = load ptr, ptr %42, align 8, !tbaa !90
  %.not.i = icmp eq ptr %43, null
  br i1 %.not.i, label %Gia_ManChoiceNum.exit.thread, label %.preheader.i

.preheader.i:                                     ; preds = %Vec_WecSizeSize.exit
  %44 = getelementptr inbounds nuw i8, ptr %41, i64 24
  %45 = load i32, ptr %44, align 8, !tbaa !97
  %46 = icmp sgt i32 %45, 0
  br i1 %46, label %.lr.ph.preheader.i, label %Gia_ManChoiceNum.exit.thread

.lr.ph.preheader.i:                               ; preds = %.preheader.i
  %wide.trip.count.i12 = zext nneg i32 %45 to i64
  br label %.lr.ph.i13

.lr.ph.i13:                                       ; preds = %.lr.ph.i13, %.lr.ph.preheader.i
  %indvars.iv.i14 = phi i64 [ 0, %.lr.ph.preheader.i ], [ %indvars.iv.next.i15, %.lr.ph.i13 ]
  %.18.i = phi i32 [ 0, %.lr.ph.preheader.i ], [ %51, %.lr.ph.i13 ]
  %47 = getelementptr inbounds nuw i32, ptr %43, i64 %indvars.iv.i14
  %48 = load i32, ptr %47, align 4, !tbaa !31
  %49 = icmp sgt i32 %48, 0
  %50 = zext i1 %49 to i32
  %51 = add nuw nsw i32 %.18.i, %50
  %indvars.iv.next.i15 = add nuw nsw i64 %indvars.iv.i14, 1
  %exitcond.not.i16 = icmp eq i64 %indvars.iv.next.i15, %wide.trip.count.i12
  br i1 %exitcond.not.i16, label %Gia_ManChoiceNum.exit, label %.lr.ph.i13, !llvm.loop !172

Gia_ManChoiceNum.exit:                            ; preds = %.lr.ph.i13
  %.not11 = icmp eq i32 %51, 0
  br i1 %.not11, label %Gia_ManChoiceNum.exit.thread, label %52

52:                                               ; preds = %Gia_ManChoiceNum.exit
  %53 = tail call i32 (ptr, ...) @printf(ptr noundef nonnull dereferenceable(1) @.str.23, i32 noundef %51)
  br label %Gia_ManChoiceNum.exit.thread

Gia_ManChoiceNum.exit.thread:                     ; preds = %.preheader.i, %Vec_WecSizeSize.exit, %52, %Gia_ManChoiceNum.exit
  %putchar = tail call i32 @putchar(i32 10)
  %54 = tail call i32 (ptr, ...) @printf(ptr noundef nonnull dereferenceable(1) @.str.25)
  %55 = load ptr, ptr @stdout, align 8, !tbaa !166
  %56 = tail call i32 @fflush(ptr noundef %55)
  br label %57

57:                                               ; preds = %1, %Gia_ManChoiceNum.exit.thread
  ret void
}